; Function Attrs: nounwind sspstrong uwtable
define dso_local i64 @rb_time_nano_new(i64 noundef %0, i64 noundef %1) local_unnamed_addr #1 {
  %3 = load i64, ptr @rb_cTime, align 8, !tbaa !11
  %4 = tail call fastcc i64 @nsec2timew(i64 noundef %0, i64 noundef %1)
  %5 = tail call i64 @rb_data_typed_object_zalloc(i64 noundef %3, i64 noundef 48, ptr noundef nonnull @time_data_type) #21
  %6 = inttoptr i64 %5 to ptr
  %7 = getelementptr inbounds nuw i8, ptr %6, i64 24
  %8 = load i64, ptr %7, align 8, !tbaa !20
  %9 = and i64 %8, 2
  %.not.i.i.i = icmp eq i64 %9, 0
  %10 = getelementptr i8, ptr %6, i64 32
  br i1 %.not.i.i.i, label %11, label %time_s_alloc.exit.i

11:                                               ; preds = %2
  %12 = load ptr, ptr %10, align 8, !tbaa !24
  br label %time_s_alloc.exit.i

time_s_alloc.exit.i:                              ; preds = %11, %2
  %13 = phi ptr [ %12, %11 ], [ %10, %2 ]
  %14 = getelementptr inbounds nuw i8, ptr %13, i64 40
  %15 = load i64, ptr %14, align 8
  %16 = and i64 %15, -131941395333121
  %17 = or disjoint i64 %16, 26388279066624
  store i64 %17, ptr %14, align 8
  store i64 1, ptr %13, align 8, !tbaa !25
  %18 = getelementptr inbounds nuw i8, ptr %13, i64 32
  store i64 4, ptr %18, align 8, !tbaa !29
  %19 = load i64, ptr %7, align 8, !tbaa !20
  %20 = and i64 %19, 2
  %.not.i.i = icmp eq i64 %20, 0
  br i1 %.not.i.i, label %21, label %RTYPEDDATA_GET_DATA.exit.i

21:                                               ; preds = %time_s_alloc.exit.i
  %22 = load ptr, ptr %10, align 8, !tbaa !24
  br label %RTYPEDDATA_GET_DATA.exit.i

RTYPEDDATA_GET_DATA.exit.i:                       ; preds = %21, %time_s_alloc.exit.i
  %23 = phi ptr [ %22, %21 ], [ %10, %time_s_alloc.exit.i ]
  %24 = getelementptr inbounds nuw i8, ptr %23, i64 40
  %25 = load i64, ptr %24, align 8
  %26 = and i64 %25, -61572651155457
  store i64 %26, ptr %24, align 8
  store i64 %4, ptr %23, align 8, !tbaa !25
  %27 = and i64 %4, 1
  %.not.i6.i = icmp eq i64 %27, 0
  br i1 %.not.i6.i, label %28, label %time_new_timew.exit

28:                                               ; preds = %RTYPEDDATA_GET_DATA.exit.i
  %29 = icmp eq i64 %4, 0
  %30 = and i64 %4, 6
  %31 = icmp ne i64 %30, 0
  %32 = or i1 %29, %31
  br i1 %32, label %time_new_timew.exit, label %33

33:                                               ; preds = %28
  tail call void @rb_gc_writebarrier(i64 noundef %5, i64 noundef %4) #21
  br label %time_new_timew.exit

time_new_timew.exit:                              ; preds = %RTYPEDDATA_GET_DATA.exit.i, %28, %33
  ret i64 %5
}